MODULE mac armv7 1F318FFA359B3E55BFF93FDAE521C2F40 CarshDemo
FUNC 6ad4 bc 0 -[ViewController viewDidLoad]
FUNC 6b90 2c 0 -[ViewController didReceiveMemoryWarning]
FUNC 6bbc c 0 -[ViewController clickCrash:]
FUNC 6bc8 4 0 -[AppDelegate application:didFinishLaunchingWithOptions:]
FUNC 6bcc 2 0 -[AppDelegate applicationWillResignActive:]
FUNC 6bce 2 0 -[AppDelegate applicationDidEnterBackground:]
FUNC 6bd0 2 0 -[AppDelegate applicationWillEnterForeground:]
FUNC 6bd2 2 0 -[AppDelegate applicationDidBecomeActive:]
FUNC 6bd4 2 0 -[AppDelegate applicationWillTerminate:]
FUNC 6bd6 10 0 -[AppDelegate window]
FUNC 6be6 26 0 -[AppDelegate setWindow:]
FUNC 6c0c 14 0 -[AppDelegate .cxx_destruct]
FUNC 6c20 5c 0 main
PUBLIC 0 0 _mh_execute_header
PUBLIC 6c7c 0 objc_release$shim
PUBLIC 6c88 0 objc_storeStrong$shim
PUBLIC 6c94 0  stub helpers
PUBLIC 86e0 0 OBJC_IVAR_$_AppDelegate._window
PUBLIC 86e4 0 OBJC_CLASS_$_ViewController
PUBLIC 86f8 0 OBJC_METACLASS_$_ViewController
PUBLIC 870c 0 OBJC_METACLASS_$_AppDelegate
PUBLIC 8720 0 OBJC_CLASS_$_AppDelegate
PUBLIC 8794 0 crash
STACK CFI INIT 6ad4 bc .cfa: sp 0 + .ra: lr
STACK CFI INIT 6b90 2c .cfa: sp 0 + .ra: lr
STACK CFI INIT 6bbc c .cfa: sp 0 + .ra: lr
STACK CFI INIT 6bc8 4 .cfa: sp 0 + .ra: lr
STACK CFI INIT 6bcc 2 .cfa: sp 0 + .ra: lr
STACK CFI INIT 6bce 2 .cfa: sp 0 + .ra: lr
STACK CFI INIT 6bd0 2 .cfa: sp 0 + .ra: lr
STACK CFI INIT 6bd2 2 .cfa: sp 0 + .ra: lr
STACK CFI INIT 6bd4 2 .cfa: sp 0 + .ra: lr
STACK CFI INIT 6bd6 10 .cfa: sp 0 + .ra: lr
STACK CFI INIT 6be6 26 .cfa: sp 0 + .ra: lr
STACK CFI INIT 6c0c 14 .cfa: sp 0 + .ra: lr
STACK CFI INIT 6c20 5c .cfa: sp 0 + .ra: lr
